; ModuleID = '38/650.c'
source_filename = "38/650.c"
target datalayout = "e-m:e-p270:32:32-p271:32:32-p272:64:64-i64:64-f80:128-n8:16:32:64-S128"
target triple = "x86_64-pc-linux-gnu"

@.str = private unnamed_addr constant [3 x i8] c"%d\00", align 1
@.str.1 = private unnamed_addr constant [4 x i8] c"%lf\00", align 1
@.str.2 = private unnamed_addr constant [7 x i8] c"%.5lf\0A\00", align 1

; Function Attrs: noinline nounwind uwtable
define dso_local i32 @main() #0 {
  %1 = alloca i32, align 4
  %2 = alloca i32, align 4
  %3 = alloca i32, align 4
  %4 = alloca i32, align 4
  %5 = alloca i32, align 4
  %6 = alloca [1000 x double], align 16
  %7 = alloca double, align 8
  %8 = alloca [100 x double], align 16
  %9 = alloca [100 x double], align 16
  %10 = alloca [100 x double], align 16
  store i32 0, i32* %1, align 4
  %11 = bitcast [100 x double]* %8 to i8*
  call void @llvm.memset.p0i8.i64(i8* align 16 %11, i8 0, i64 800, i1 false)
  %12 = bitcast [100 x double]* %9 to i8*
  call void @llvm.memset.p0i8.i64(i8* align 16 %12, i8 0, i64 800, i1 false)
  %13 = bitcast [100 x double]* %10 to i8*
  call void @llvm.memset.p0i8.i64(i8* align 16 %13, i8 0, i64 800, i1 false)
  %14 = call i32 (i8*, ...) @__isoc99_scanf(i8* getelementptr inbounds ([3 x i8], [3 x i8]* @.str, i64 0, i64 0), i32* %3)
  store i32 0, i32* %4, align 4
  br label %15

15:                                               ; preds = %88, %0
  %16 = load i32, i32* %4, align 4
  %17 = load i32, i32* %3, align 4
  %18 = icmp slt i32 %16, %17
  br i1 %18, label %19, label %91

19:                                               ; preds = %15
  %20 = call i32 (i8*, ...) @__isoc99_scanf(i8* getelementptr inbounds ([3 x i8], [3 x i8]* @.str, i64 0, i64 0), i32* %2)
  store i32 0, i32* %5, align 4
  br label %21

21:                                               ; preds = %39, %19
  %22 = load i32, i32* %5, align 4
  %23 = load i32, i32* %2, align 4
  %24 = icmp slt i32 %22, %23
  br i1 %24, label %25, label %42

25:                                               ; preds = %21
  %26 = load i32, i32* %5, align 4
  %27 = sext i32 %26 to i64
  %28 = getelementptr inbounds [1000 x double], [1000 x double]* %6, i64 0, i64 %27
  %29 = call i32 (i8*, ...) @__isoc99_scanf(i8* getelementptr inbounds ([4 x i8], [4 x i8]* @.str.1, i64 0, i64 0), double* %28)
  %30 = load i32, i32* %5, align 4
  %31 = sext i32 %30 to i64
  %32 = getelementptr inbounds [1000 x double], [1000 x double]* %6, i64 0, i64 %31
  %33 = load double, double* %32, align 8
  %34 = load i32, i32* %4, align 4
  %35 = sext i32 %34 to i64
  %36 = getelementptr inbounds [100 x double], [100 x double]* %8, i64 0, i64 %35
  %37 = load double, double* %36, align 8
  %38 = fadd double %37, %33
  store double %38, double* %36, align 8
  br label %39

39:                                               ; preds = %25
  %40 = load i32, i32* %5, align 4
  %41 = add nsw i32 %40, 1
  store i32 %41, i32* %5, align 4
  br label %21

42:                                               ; preds = %21
  %43 = load i32, i32* %4, align 4
  %44 = sext i32 %43 to i64
  %45 = getelementptr inbounds [100 x double], [100 x double]* %8, i64 0, i64 %44
  %46 = load double, double* %45, align 8
  %47 = load i32, i32* %2, align 4
  %48 = sitofp i32 %47 to double
  %49 = fdiv double %46, %48
  store double %49, double* %7, align 8
  store i32 0, i32* %5, align 4
  br label %50

50:                                               ; preds = %73, %42
  %51 = load i32, i32* %5, align 4
  %52 = load i32, i32* %2, align 4
  %53 = icmp slt i32 %51, %52
  br i1 %53, label %54, label %76

54:                                               ; preds = %50
  %55 = load i32, i32* %5, align 4
  %56 = sext i32 %55 to i64
  %57 = getelementptr inbounds [1000 x double], [1000 x double]* %6, i64 0, i64 %56
  %58 = load double, double* %57, align 8
  %59 = load double, double* %7, align 8
  %60 = fsub double %58, %59
  %61 = load i32, i32* %5, align 4
  %62 = sext i32 %61 to i64
  %63 = getelementptr inbounds [1000 x double], [1000 x double]* %6, i64 0, i64 %62
  %64 = load double, double* %63, align 8
  %65 = load double, double* %7, align 8
  %66 = fsub double %64, %65
  %67 = fmul double %60, %66
  %68 = load i32, i32* %4, align 4
  %69 = sext i32 %68 to i64
  %70 = getelementptr inbounds [100 x double], [100 x double]* %9, i64 0, i64 %69
  %71 = load double, double* %70, align 8
  %72 = fadd double %71, %67
  store double %72, double* %70, align 8
  br label %73

73:                                               ; preds = %54
  %74 = load i32, i32* %5, align 4
  %75 = add nsw i32 %74, 1
  store i32 %75, i32* %5, align 4
  br label %50

76:                                               ; preds = %50
  %77 = load i32, i32* %4, align 4
  %78 = sext i32 %77 to i64
  %79 = getelementptr inbounds [100 x double], [100 x double]* %9, i64 0, i64 %78
  %80 = load double, double* %79, align 8
  %81 = load i32, i32* %2, align 4
  %82 = sitofp i32 %81 to double
  %83 = fdiv double %80, %82
  %84 = call double @sqrt(double %83) #4
  %85 = load i32, i32* %4, align 4
  %86 = sext i32 %85 to i64
  %87 = getelementptr inbounds [100 x double], [100 x double]* %10, i64 0, i64 %86
  store double %84, double* %87, align 8
  br label %88

88:                                               ; preds = %76
  %89 = load i32, i32* %4, align 4
  %90 = add nsw i32 %89, 1
  store i32 %90, i32* %4, align 4
  br label %15

91:                                               ; preds = %15
  store i32 0, i32* %4, align 4
  br label %92

92:                                               ; preds = %102, %91
  %93 = load i32, i32* %4, align 4
  %94 = load i32, i32* %3, align 4
  %95 = icmp slt i32 %93, %94
  br i1 %95, label %96, label %105

96:                                               ; preds = %92
  %97 = load i32, i32* %4, align 4
  %98 = sext i32 %97 to i64
  %99 = getelementptr inbounds [100 x double], [100 x double]* %10, i64 0, i64 %98
  %100 = load double, double* %99, align 8
  %101 = call i32 (i8*, ...) @printf(i8* getelementptr inbounds ([7 x i8], [7 x i8]* @.str.2, i64 0, i64 0), double %100)
  br label %102

102:                                              ; preds = %96
  %103 = load i32, i32* %4, align 4
  %104 = add nsw i32 %103, 1
  store i32 %104, i32* %4, align 4
  br label %92

105:                                              ; preds = %92
  ret i32 0
}

; Function Attrs: argmemonly nounwind willreturn
declare void @llvm.memset.p0i8.i64(i8* nocapture writeonly, i8, i64, i1 immarg) #1

declare dso_local i32 @__isoc99_scanf(i8*, ...) #2

; Function Attrs: nounwind
declare dso_local double @sqrt(double) #3

declare dso_local i32 @printf(i8*, ...) #2


!llvm.module.flags = !{!0}
!llvm.ident = !{!1}

!0 = !{i32 1, !"wchar_size", i32 4}
!1 = !{!"clang version 10.0.0-4ubuntu1 "}
